; ModuleID = '22/814.c'
source_filename = "22/814.c"
target datalayout = "e-m:e-p270:32:32-p271:32:32-p272:64:64-i64:64-f80:128-n8:16:32:64-S128"
target triple = "x86_64-pc-linux-gnu"

@.str = private unnamed_addr constant [3 x i8] c"No\00", align 1
@.str.1 = private unnamed_addr constant [3 x i8] c"%d\00", align 1

; Function Attrs: noinline nounwind uwtable
define dso_local void @main() #0 {
  %1 = alloca i8, align 1
  %2 = alloca [300 x i32], align 16
  %3 = alloca i32, align 4
  %4 = alloca i32, align 4
  %5 = alloca i32, align 4
  %6 = alloca i32, align 4
  %7 = alloca i32, align 4
  store i32 0, i32* %3, align 4
  store i32 0, i32* %4, align 4
  store i32 -1, i32* %7, align 4
  br label %8

8:                                                ; preds = %30, %0
  %9 = call i32 @getchar()
  %10 = trunc i32 %9 to i8
  store i8 %10, i8* %1, align 1
  %11 = sext i8 %10 to i32
  %12 = icmp ne i32 %11, 10
  br i1 %12, label %13, label %31

13:                                               ; preds = %8
  %14 = load i8, i8* %1, align 1
  %15 = sext i8 %14 to i32
  %16 = icmp eq i32 %15, 44
  br i1 %16, label %17, label %23

17:                                               ; preds = %13
  %18 = load i32, i32* %3, align 4
  %19 = load i32, i32* %4, align 4
  %20 = add nsw i32 %19, 1
  store i32 %20, i32* %4, align 4
  %21 = sext i32 %19 to i64
  %22 = getelementptr inbounds [300 x i32], [300 x i32]* %2, i64 0, i64 %21
  store i32 %18, i32* %22, align 4
  store i32 0, i32* %3, align 4
  br label %30

23:                                               ; preds = %13
  %24 = load i32, i32* %3, align 4
  %25 = mul nsw i32 %24, 10
  %26 = load i8, i8* %1, align 1
  %27 = sext i8 %26 to i32
  %28 = add nsw i32 %25, %27
  %29 = sub nsw i32 %28, 48
  store i32 %29, i32* %3, align 4
  br label %30

30:                                               ; preds = %23, %17
  br label %8

31:                                               ; preds = %8
  %32 = load i32, i32* %3, align 4
  %33 = load i32, i32* %4, align 4
  %34 = add nsw i32 %33, 1
  store i32 %34, i32* %4, align 4
  %35 = sext i32 %33 to i64
  %36 = getelementptr inbounds [300 x i32], [300 x i32]* %2, i64 0, i64 %35
  store i32 %32, i32* %36, align 4
  %37 = getelementptr inbounds [300 x i32], [300 x i32]* %2, i64 0, i64 0
  %38 = load i32, i32* %37, align 16
  store i32 %38, i32* %6, align 4
  store i32 1, i32* %5, align 4
  br label %39

39:                                               ; preds = %76, %31
  %40 = load i32, i32* %5, align 4
  %41 = load i32, i32* %4, align 4
  %42 = icmp slt i32 %40, %41
  br i1 %42, label %43, label %79

43:                                               ; preds = %39
  %44 = load i32, i32* %5, align 4
  %45 = sext i32 %44 to i64
  %46 = getelementptr inbounds [300 x i32], [300 x i32]* %2, i64 0, i64 %45
  %47 = load i32, i32* %46, align 4
  %48 = load i32, i32* %6, align 4
  %49 = icmp sgt i32 %47, %48
  br i1 %49, label %50, label %56

50:                                               ; preds = %43
  %51 = load i32, i32* %6, align 4
  store i32 %51, i32* %7, align 4
  %52 = load i32, i32* %5, align 4
  %53 = sext i32 %52 to i64
  %54 = getelementptr inbounds [300 x i32], [300 x i32]* %2, i64 0, i64 %53
  %55 = load i32, i32* %54, align 4
  store i32 %55, i32* %6, align 4
  br label %56

56:                                               ; preds = %50, %43
  %57 = load i32, i32* %5, align 4
  %58 = sext i32 %57 to i64
  %59 = getelementptr inbounds [300 x i32], [300 x i32]* %2, i64 0, i64 %58
  %60 = load i32, i32* %59, align 4
  %61 = load i32, i32* %6, align 4
  %62 = icmp slt i32 %60, %61
  br i1 %62, label %63, label %75

63:                                               ; preds = %56
  %64 = load i32, i32* %5, align 4
  %65 = sext i32 %64 to i64
  %66 = getelementptr inbounds [300 x i32], [300 x i32]* %2, i64 0, i64 %65
  %67 = load i32, i32* %66, align 4
  %68 = load i32, i32* %7, align 4
  %69 = icmp sgt i32 %67, %68
  br i1 %69, label %70, label %75

70:                                               ; preds = %63
  %71 = load i32, i32* %5, align 4
  %72 = sext i32 %71 to i64
  %73 = getelementptr inbounds [300 x i32], [300 x i32]* %2, i64 0, i64 %72
  %74 = load i32, i32* %73, align 4
  store i32 %74, i32* %7, align 4
  br label %75

75:                                               ; preds = %70, %63, %56
  br label %76

76:                                               ; preds = %75
  %77 = load i32, i32* %5, align 4
  %78 = add nsw i32 %77, 1
  store i32 %78, i32* %5, align 4
  br label %39

79:                                               ; preds = %39
  %80 = load i32, i32* %7, align 4
  %81 = icmp eq i32 %80, -1
  br i1 %81, label %82, label %84

82:                                               ; preds = %79
  %83 = call i32 (i8*, ...) @printf(i8* getelementptr inbounds ([3 x i8], [3 x i8]* @.str, i64 0, i64 0))
  br label %87

84:                                               ; preds = %79
  %85 = load i32, i32* %7, align 4
  %86 = call i32 (i8*, ...) @printf(i8* getelementptr inbounds ([3 x i8], [3 x i8]* @.str.1, i64 0, i64 0), i32 %85)
  br label %87

87:                                               ; preds = %84, %82
  ret void
}

declare dso_local i32 @getchar() #1

declare dso_local i32 @printf(i8*, ...) #1


!llvm.module.flags = !{!0}
!llvm.ident = !{!1}

!0 = !{i32 1, !"wchar_size", i32 4}
!1 = !{!"clang version 10.0.0-4ubuntu1 "}
